target datalayout = "e-m:e-p270:32:32-p271:32:32-p272:64:64-i64:64-i128:128-f80:128-n8:16:32:64-S128"
target triple = "x86_64-pc-linux-gnu"

%struct.CSzFile = type { ptr, ptr }

; Function Attrs: nounwind uwtable
define i32 @File_Seek(ptr noundef %0, ptr noundef %1, i32 noundef %2) #0 {
  %4 = alloca i32, align 4
  %5 = alloca ptr, align 8
  %6 = alloca ptr, align 8
  %7 = alloca i32, align 4
  %8 = alloca i32, align 4
  %9 = alloca i32, align 4
  %10 = alloca i32, align 4
  store ptr %0, ptr %5, align 8, !tbaa !3
  store ptr %1, ptr %6, align 8, !tbaa !19
  store i32 %2, ptr %7, align 4, !tbaa !13
  call void @llvm.lifetime.start.p0(i64 4, ptr %8) #6
  call void @llvm.lifetime.start.p0(i64 4, ptr %9) #6
  %11 = load i32, ptr %7, align 4, !tbaa !13
  switch i32 %11, label %15 [
    i32 0, label %12
    i32 1, label %13
    i32 2, label %14
  ]

12:                                               ; preds = %3
  store i32 0, ptr %8, align 4, !tbaa !13
  br label %16

13:                                               ; preds = %3
  store i32 1, ptr %8, align 4, !tbaa !13
  br label %16

14:                                               ; preds = %3
  store i32 2, ptr %8, align 4, !tbaa !13
  br label %16

15:                                               ; preds = %3
  store i32 1, ptr %4, align 4
  store i32 1, ptr %10, align 4
  br label %30

16:                                               ; preds = %14, %13, %12
  %17 = load ptr, ptr %5, align 8, !tbaa !3
  %18 = getelementptr inbounds nuw %struct.CSzFile, ptr %17, i32 0, i32 0
  %19 = load ptr, ptr %18, align 8, !tbaa !7
  %20 = load ptr, ptr %6, align 8, !tbaa !19
  %21 = load i64, ptr %20, align 8, !tbaa !21
  %22 = load i32, ptr %8, align 4, !tbaa !13
  %23 = call i32 @fseek(ptr noundef %19, i64 noundef %21, i32 noundef %22)
  store i32 %23, ptr %9, align 4, !tbaa !13
  %24 = load ptr, ptr %5, align 8, !tbaa !3
  %25 = getelementptr inbounds nuw %struct.CSzFile, ptr %24, i32 0, i32 0
  %26 = load ptr, ptr %25, align 8, !tbaa !7
  %27 = call i64 @ftell(ptr noundef %26)
  %28 = load ptr, ptr %6, align 8, !tbaa !19
  store i64 %27, ptr %28, align 8, !tbaa !21
  %29 = load i32, ptr %9, align 4, !tbaa !13
  store i32 %29, ptr %4, align 4
  store i32 1, ptr %10, align 4
  br label %30

30:                                               ; preds = %16, %15
  call void @llvm.lifetime.end.p0(i64 4, ptr %9) #6
  call void @llvm.lifetime.end.p0(i64 4, ptr %8) #6
  %31 = load i32, ptr %4, align 4
  ret i32 %31
}