; Function Attrs: nofree nounwind uwtable
define noundef i32 @File_Seek(ptr noundef readonly captures(none) %0, ptr noundef captures(none) %1, i32 noundef %2) local_unnamed_addr #1 {
  %switch = icmp ult i32 %2, 3
  br i1 %switch, label %4, label %10

4:                                                ; preds = %3
  %5 = load ptr, ptr %0, align 8, !tbaa !3
  %6 = load i64, ptr %1, align 8, !tbaa !14
  %7 = tail call i32 @fseek(ptr noundef %5, i64 noundef %6, i32 noundef %2)
  %8 = load ptr, ptr %0, align 8, !tbaa !3
  %9 = tail call i64 @ftell(ptr noundef %8)
  store i64 %9, ptr %1, align 8, !tbaa !14
  br label %10

10:                                               ; preds = %3, %4
  %.0 = phi i32 [ %7, %4 ], [ 1, %3 ]
  ret i32 %.0
}